target datalayout = "e-m:e-p270:32:32-p271:32:32-p272:64:64-i64:64-i128:128-f80:128-n8:16:32:64-S128"
target triple = "x86_64-pc-linux-gnu"

%struct.cliCommandArg = type { ptr, i32, ptr, ptr, i32, i32, ptr, ptr, i32, i32, i32, i32 }

; Function Attrs: nounwind uwtable
define internal void @clearMatchedArgs(ptr noundef %0, i32 noundef %1) #0 {
  %3 = alloca ptr, align 8
  %4 = alloca i32, align 4
  %5 = alloca i32, align 4
  store ptr %0, ptr %3, align 8, !tbaa !43
  store i32 %1, ptr %4, align 4, !tbaa !10
  call void @llvm.lifetime.start.p0(i64 4, ptr %5) #15
  store i32 0, ptr %5, align 4, !tbaa !10
  br label %6

6:                                                ; preds = %53, %2
  %7 = load i32, ptr %5, align 4, !tbaa !10
  %8 = load i32, ptr %4, align 4, !tbaa !10
  %9 = icmp ne i32 %7, %8
  br i1 %9, label %11, label %10

10:                                               ; preds = %6
  call void @llvm.lifetime.end.p0(i64 4, ptr %5) #15
  br label %56

11:                                               ; preds = %6
  %12 = load ptr, ptr %3, align 8, !tbaa !43
  %13 = load i32, ptr %5, align 4, !tbaa !10
  %14 = sext i32 %13 to i64
  %15 = getelementptr inbounds %struct.cliCommandArg, ptr %12, i64 %14
  %16 = getelementptr inbounds nuw %struct.cliCommandArg, ptr %15, i32 0, i32 8
  store i32 0, ptr %16, align 8, !tbaa !386
  %17 = load ptr, ptr %3, align 8, !tbaa !43
  %18 = load i32, ptr %5, align 4, !tbaa !10
  %19 = sext i32 %18 to i64
  %20 = getelementptr inbounds %struct.cliCommandArg, ptr %17, i64 %19
  %21 = getelementptr inbounds nuw %struct.cliCommandArg, ptr %20, i32 0, i32 9
  store i32 0, ptr %21, align 4, !tbaa !387
  %22 = load ptr, ptr %3, align 8, !tbaa !43
  %23 = load i32, ptr %5, align 4, !tbaa !10
  %24 = sext i32 %23 to i64
  %25 = getelementptr inbounds %struct.cliCommandArg, ptr %22, i64 %24
  %26 = getelementptr inbounds nuw %struct.cliCommandArg, ptr %25, i32 0, i32 10
  store i32 0, ptr %26, align 8, !tbaa !388
  %27 = load ptr, ptr %3, align 8, !tbaa !43
  %28 = load i32, ptr %5, align 4, !tbaa !10
  %29 = sext i32 %28 to i64
  %30 = getelementptr inbounds %struct.cliCommandArg, ptr %27, i64 %29
  %31 = getelementptr inbounds nuw %struct.cliCommandArg, ptr %30, i32 0, i32 11
  store i32 0, ptr %31, align 4, !tbaa !389
  %32 = load ptr, ptr %3, align 8, !tbaa !43
  %33 = load i32, ptr %5, align 4, !tbaa !10
  %34 = sext i32 %33 to i64
  %35 = getelementptr inbounds %struct.cliCommandArg, ptr %32, i64 %34
  %36 = getelementptr inbounds nuw %struct.cliCommandArg, ptr %35, i32 0, i32 6
  %37 = load ptr, ptr %36, align 8, !tbaa !381
  %38 = icmp ne ptr %37, null
  br i1 %38, label %39, label %52

39:                                               ; preds = %11
  %40 = load ptr, ptr %3, align 8, !tbaa !43
  %41 = load i32, ptr %5, align 4, !tbaa !10
  %42 = sext i32 %41 to i64
  %43 = getelementptr inbounds %struct.cliCommandArg, ptr %40, i64 %42
  %44 = getelementptr inbounds nuw %struct.cliCommandArg, ptr %43, i32 0, i32 6
  %45 = load ptr, ptr %44, align 8, !tbaa !381
  %46 = load ptr, ptr %3, align 8, !tbaa !43
  %47 = load i32, ptr %5, align 4, !tbaa !10
  %48 = sext i32 %47 to i64
  %49 = getelementptr inbounds %struct.cliCommandArg, ptr %46, i64 %48
  %50 = getelementptr inbounds nuw %struct.cliCommandArg, ptr %49, i32 0, i32 5
  %51 = load i32, ptr %50, align 4, !tbaa !382
  call void @clearMatchedArgs(ptr noundef %45, i32 noundef %51)
  br label %52

52:                                               ; preds = %39, %11
  br label %53

53:                                               ; preds = %52
  %54 = load i32, ptr %5, align 4, !tbaa !10
  %55 = add nsw i32 %54, 1
  store i32 %55, ptr %5, align 4, !tbaa !10
  br label %6, !llvm.loop !390

56:                                               ; preds = %10
  ret void
}