; Function Attrs: nofree nosync nounwind memory(readwrite, inaccessiblemem: none) uwtable
define internal fastcc void @clearMatchedArgs(ptr noundef captures(none) %0, i32 noundef %1) unnamed_addr #25 {
  %.not18 = icmp eq i32 %1, 0
  br i1 %.not18, label %._crit_edge, label %.lr.ph.preheader

.lr.ph.preheader:                                 ; preds = %2
  %3 = zext i32 %1 to i64
  br label %.lr.ph

._crit_edge:                                      ; preds = %11, %2
  ret void

.lr.ph:                                           ; preds = %.lr.ph.preheader, %11
  %indvars.iv = phi i64 [ 0, %.lr.ph.preheader ], [ %indvars.iv.next, %11 ]
  %4 = getelementptr inbounds nuw %struct.cliCommandArg, ptr %0, i64 %indvars.iv
  %5 = getelementptr inbounds nuw i8, ptr %4, i64 56
  %6 = getelementptr inbounds nuw i8, ptr %4, i64 40
  tail call void @llvm.memset.p0.i64(ptr noundef nonnull align 8 dereferenceable(16) %5, i8 0, i64 16, i1 false)
  %7 = load ptr, ptr %6, align 8, !tbaa !377
  %.not17 = icmp eq ptr %7, null
  br i1 %.not17, label %11, label %8

8:                                                ; preds = %.lr.ph
  %9 = getelementptr inbounds nuw i8, ptr %4, i64 36
  %10 = load i32, ptr %9, align 4, !tbaa !378
  tail call fastcc void @clearMatchedArgs(ptr noundef nonnull %7, i32 noundef %10)
  br label %11

11:                                               ; preds = %.lr.ph, %8
  %indvars.iv.next = add nuw nsw i64 %indvars.iv, 1
  %.not = icmp eq i64 %indvars.iv.next, %3
  br i1 %.not, label %._crit_edge, label %.lr.ph, !llvm.loop !383
}